SF:C:\Users\quinn\Desktop\dev\rust_vm\src\alu\alu_flags.rs
FN:12,_RNvMNtNtCshrGKrJ5NDIV_7rust_vm3alu9alu_flagsNtB2_8AluFlags8set_zero
FN:20,_RNvMNtNtCshrGKrJ5NDIV_7rust_vm3alu9alu_flagsNtB2_8AluFlags9cond_true
FN:16,_RNvMNtNtCshrGKrJ5NDIV_7rust_vm3alu9alu_flagsNtB2_8AluFlags9set_carry
FNDA:112,_RNvMNtNtCshrGKrJ5NDIV_7rust_vm3alu9alu_flagsNtB2_8AluFlags8set_zero
FNDA:2,_RNvMNtNtCshrGKrJ5NDIV_7rust_vm3alu9alu_flagsNtB2_8AluFlags9cond_true
FNDA:112,_RNvMNtNtCshrGKrJ5NDIV_7rust_vm3alu9alu_flagsNtB2_8AluFlags9set_carry
FNF:3
FNH:3
DA:12,112
DA:13,112
DA:14,112
DA:16,112
DA:17,112
DA:18,112
DA:20,2
DA:21,2
DA:22,2
DA:23,1
DA:24,0
DA:25,0
DA:26,0
DA:28,2
BRF:0
BRH:0
LF:14
LH:11
end_of_record
SF:C:\Users\quinn\Desktop\dev\rust_vm\src\alu\alu_settings.rs
FN:28,_RNvMNtNtCshrGKrJ5NDIV_7rust_vm3alu12alu_settingsNtB2_11AluSettings6config
FNDA:58,_RNvMNtNtCshrGKrJ5NDIV_7rust_vm3alu12alu_settingsNtB2_11AluSettings6config
FNF:1
FNH:1
DA:28,58
DA:29,58
DA:30,39
DA:31,39
DA:32,39
DA:33,39
DA:34,39
DA:35,39
DA:36,39
DA:37,39
DA:38,6
DA:39,6
DA:40,6
DA:41,6
DA:42,6
DA:43,6
DA:44,6
DA:45,6
DA:46,3
DA:47,3
DA:48,3
DA:49,3
DA:50,3
DA:51,3
DA:52,3
DA:53,3
DA:54,1
DA:55,1
DA:56,1
DA:57,1
DA:58,1
DA:59,1
DA:60,1
DA:61,1
DA:62,1
DA:63,1
DA:64,1
DA:65,1
DA:66,1
DA:67,1
DA:68,1
DA:69,1
DA:70,1
DA:71,1
DA:72,1
DA:73,1
DA:74,1
DA:75,1
DA:76,1
DA:77,1
DA:78,1
DA:79,1
DA:80,1
DA:81,1
DA:82,1
DA:83,1
DA:84,1
DA:85,1
DA:86,1
DA:87,1
DA:88,1
DA:89,1
DA:90,1
DA:91,1
DA:92,1
DA:93,1
DA:94,1
DA:95,1
DA:96,1
DA:97,1
DA:98,1
DA:99,1
DA:100,1
DA:101,1
DA:102,1
DA:103,1
DA:104,1
DA:105,1
DA:106,1
DA:107,1
DA:108,1
DA:109,1
DA:110,3
DA:111,3
DA:112,3
DA:113,3
DA:114,3
DA:115,3
DA:116,3
DA:117,3
DA:119,58
BRF:0
BRH:0
LF:91
LH:91
end_of_record
SF:C:\Users\quinn\Desktop\dev\rust_vm\src\alu\mod.rs
FN:99,_RNvMNtCshrGKrJ5NDIV_7rust_vm3aluNtB2_3Alu11set_setting
FN:24,_RNvMNtCshrGKrJ5NDIV_7rust_vm3aluNtB2_3Alu3new
FN:33,_RINvMNtCshrGKrJ5NDIV_7rust_vm3aluNtB3_3Alu7computeKj8_EB5_
FN:33,_RINvMNtCshrGKrJ5NDIV_7rust_vm3aluNtB3_3Alu7computeKja_EB5_
FN:46,_RNCINvMNtCshrGKrJ5NDIV_7rust_vm3aluNtB5_3Alu7computeKj8_E0B7_
FN:50,_RNCINvMNtCshrGKrJ5NDIV_7rust_vm3aluNtB5_3Alu7computeKj8_Es_0B7_
FN:46,_RNCINvMNtCshrGKrJ5NDIV_7rust_vm3aluNtB5_3Alu7computeKja_E0B7_
FN:50,_RNCINvMNtCshrGKrJ5NDIV_7rust_vm3aluNtB5_3Alu7computeKja_Es_0B7_
FNDA:43,_RNvMNtCshrGKrJ5NDIV_7rust_vm3aluNtB2_3Alu11set_setting
FNDA:15,_RNvMNtCshrGKrJ5NDIV_7rust_vm3aluNtB2_3Alu3new
FNDA:73,_RINvMNtCshrGKrJ5NDIV_7rust_vm3aluNtB3_3Alu7computeKj8_EB5_
FNDA:43,_RINvMNtCshrGKrJ5NDIV_7rust_vm3aluNtB3_3Alu7computeKja_EB5_
FNDA:216,_RNCINvMNtCshrGKrJ5NDIV_7rust_vm3aluNtB5_3Alu7computeKj8_E0B7_
FNDA:96,_RNCINvMNtCshrGKrJ5NDIV_7rust_vm3aluNtB5_3Alu7computeKj8_Es_0B7_
FNDA:0,_RNCINvMNtCshrGKrJ5NDIV_7rust_vm3aluNtB5_3Alu7computeKja_E0B7_
FNDA:0,_RNCINvMNtCshrGKrJ5NDIV_7rust_vm3aluNtB5_3Alu7computeKja_Es_0B7_
FNF:5
FNH:5
DA:24,15
DA:25,15
DA:26,15
DA:27,15
DA:28,15
DA:29,15
DA:30,15
DA:31,15
DA:33,116
DA:34,116
DA:36,116
DA:37,4
DA:38,28
DA:39,28
DA:40,28
DA:41,4
DA:42,4
DA:43,112
DA:45,112
DA:46,216
DA:47,85
DA:49,112
DA:50,96
DA:51,100
DA:53,112
DA:54,112
DA:55,112
DA:56,1094
DA:57,1094
DA:58,112
DA:59,13
DA:60,99
DA:62,112
DA:63,982
DA:64,982
DA:65,982
DA:67,982
DA:68,144
DA:69,144
DA:70,838
DA:71,838
DA:72,68
DA:73,770
DA:74,531
DA:75,531
DA:79,112
DA:80,23
DA:81,89
DA:83,1094
DA:84,982
DA:85,661
DA:86,661
DA:87,661
DA:88,321
DA:89,321
DA:90,321
DA:93,112
DA:94,112
DA:95,112
DA:96,112
DA:97,116
DA:99,43
DA:100,43
DA:101,43
DA:102,43
BRF:0
BRH:0
LF:67
LH:67
end_of_record
SF:C:\Users\quinn\Desktop\dev\rust_vm\src\bits\error.rs
FN:10,_RNvXNtNtCshrGKrJ5NDIV_7rust_vm4bits5errorNtB2_14BitsParseErrorNtNtCs5cb5cxfFw7H_4core3fmt7Display3fmt
FNDA:4,_RNvXNtNtCshrGKrJ5NDIV_7rust_vm4bits5errorNtB2_14BitsParseErrorNtNtCs5cb5cxfFw7H_4core3fmt7Display3fmt
FNF:1
FNH:1
DA:10,4
DA:11,4
DA:12,1
DA:13,1
DA:15,1
DA:16,1
DA:18,1
DA:19,1
DA:20,1
DA:23,4
BRF:0
BRH:0
LF:10
LH:10
end_of_record
SF:C:\Users\quinn\Desktop\dev\rust_vm\src\bits\from_impl.rs
FN:71,_RNCNvXNtNtCshrGKrJ5NDIV_7rust_vm4bits9from_implINtB6_4BitsKj10_ENtNtNtCs5cb5cxfFw7H_4core3str6traits7FromStr8from_str0B8_
FN:80,_RNCNvXNtNtCshrGKrJ5NDIV_7rust_vm4bits9from_implINtB6_4BitsKj10_ENtNtNtCs5cb5cxfFw7H_4core3str6traits7FromStr8from_strs_0B8_
FN:71,_RNCNvXNtNtCshrGKrJ5NDIV_7rust_vm4bits9from_implINtB6_4BitsKj2_ENtNtNtCs5cb5cxfFw7H_4core3str6traits7FromStr8from_str0B8_
FN:80,_RNCNvXNtNtCshrGKrJ5NDIV_7rust_vm4bits9from_implINtB6_4BitsKj2_ENtNtNtCs5cb5cxfFw7H_4core3str6traits7FromStr8from_strs_0B8_
FN:71,_RNCNvXNtNtCshrGKrJ5NDIV_7rust_vm4bits9from_implINtB6_4BitsKj4_ENtNtNtCs5cb5cxfFw7H_4core3str6traits7FromStr8from_str0B8_
FN:80,_RNCNvXNtNtCshrGKrJ5NDIV_7rust_vm4bits9from_implINtB6_4BitsKj4_ENtNtNtCs5cb5cxfFw7H_4core3str6traits7FromStr8from_strs_0B8_
FN:71,_RNCNvXNtNtCshrGKrJ5NDIV_7rust_vm4bits9from_implINtB6_4BitsKj8_ENtNtNtCs5cb5cxfFw7H_4core3str6traits7FromStr8from_str0B8_
FN:80,_RNCNvXNtNtCshrGKrJ5NDIV_7rust_vm4bits9from_implINtB6_4BitsKj8_ENtNtNtCs5cb5cxfFw7H_4core3str6traits7FromStr8from_strs_0B8_
FN:71,_RNCNvXNtNtCshrGKrJ5NDIV_7rust_vm4bits9from_implINtB6_4BitsKja_ENtNtNtCs5cb5cxfFw7H_4core3str6traits7FromStr8from_str0B8_
FN:80,_RNCNvXNtNtCshrGKrJ5NDIV_7rust_vm4bits9from_implINtB6_4BitsKja_ENtNtNtCs5cb5cxfFw7H_4core3str6traits7FromStr8from_strs_0B8_
FN:29,_RNCNvXs9_NtNtCshrGKrJ5NDIV_7rust_vm4bits9from_implaINtNtCs5cb5cxfFw7H_4core7convert4FromINtB9_4BitsKj8_EE4from0Bb_
FN:29,_RNCNvXsa_NtNtCshrGKrJ5NDIV_7rust_vm4bits9from_implsINtNtCs5cb5cxfFw7H_4core7convert4FromINtB9_4BitsKj10_EE4from0Bb_
FN:29,_RNCNvXse_NtNtCshrGKrJ5NDIV_7rust_vm4bits9from_implhINtNtCs5cb5cxfFw7H_4core7convert4FromINtB9_4BitsKj8_EE4from0Bb_
FN:44,_RNCNvXso_NtNtCshrGKrJ5NDIV_7rust_vm4bits9from_implhINtNtCs5cb5cxfFw7H_4core7convert4FromRINtB9_4BitsKj8_EE4from0Bb_
FN:58,_RNvXNtNtCshrGKrJ5NDIV_7rust_vm4bits9from_implINtB4_4BitsKj10_ENtNtNtCs5cb5cxfFw7H_4core3str6traits7FromStr8from_strB6_
FN:58,_RNvXNtNtCshrGKrJ5NDIV_7rust_vm4bits9from_implINtB4_4BitsKj2_ENtNtNtCs5cb5cxfFw7H_4core3str6traits7FromStr8from_strB6_
FN:58,_RNvXNtNtCshrGKrJ5NDIV_7rust_vm4bits9from_implINtB4_4BitsKj4_ENtNtNtCs5cb5cxfFw7H_4core3str6traits7FromStr8from_strB6_
FN:58,_RNvXNtNtCshrGKrJ5NDIV_7rust_vm4bits9from_implINtB4_4BitsKj8_ENtNtNtCs5cb5cxfFw7H_4core3str6traits7FromStr8from_strB6_
FN:58,_RNvXNtNtCshrGKrJ5NDIV_7rust_vm4bits9from_implINtB4_4BitsKja_ENtNtNtCs5cb5cxfFw7H_4core3str6traits7FromStr8from_strB6_
FN:9,_RNvXs0_NtNtCshrGKrJ5NDIV_7rust_vm4bits9from_implINtB7_4BitsKj10_EINtNtCs5cb5cxfFw7H_4core7convert4FromtE4from
FN:9,_RNvXs4_NtNtCshrGKrJ5NDIV_7rust_vm4bits9from_implINtB7_4BitsKj8_EINtNtCs5cb5cxfFw7H_4core7convert4FromaE4from
FN:9,_RNvXs5_NtNtCshrGKrJ5NDIV_7rust_vm4bits9from_implINtB7_4BitsKj10_EINtNtCs5cb5cxfFw7H_4core7convert4FromsE4from
FN:9,_RNvXs6_NtNtCshrGKrJ5NDIV_7rust_vm4bits9from_implINtB7_4BitsKj20_EINtNtCs5cb5cxfFw7H_4core7convert4FromlE4from
FN:9,_RNvXs_NtNtCshrGKrJ5NDIV_7rust_vm4bits9from_implINtB6_4BitsKj8_EINtNtCs5cb5cxfFw7H_4core7convert4FromhE4from
FN:25,_RNvXs9_NtNtCshrGKrJ5NDIV_7rust_vm4bits9from_implaINtNtCs5cb5cxfFw7H_4core7convert4FromINtB7_4BitsKj8_EE4from
FN:25,_RNvXsa_NtNtCshrGKrJ5NDIV_7rust_vm4bits9from_implsINtNtCs5cb5cxfFw7H_4core7convert4FromINtB7_4BitsKj10_EE4from
FN:25,_RNvXse_NtNtCshrGKrJ5NDIV_7rust_vm4bits9from_implhINtNtCs5cb5cxfFw7H_4core7convert4FromINtB7_4BitsKj8_EE4from
FN:40,_RNvXso_NtNtCshrGKrJ5NDIV_7rust_vm4bits9from_implhINtNtCs5cb5cxfFw7H_4core7convert4FromRINtB7_4BitsKj8_EE4from
FN:29,_RNCNvXsb_NtNtCshrGKrJ5NDIV_7rust_vm4bits9from_impllINtNtCs5cb5cxfFw7H_4core7convert4FromINtB9_4BitsKj20_EE4from0Bb_
FN:29,_RNCNvXsc_NtNtCshrGKrJ5NDIV_7rust_vm4bits9from_implxINtNtCs5cb5cxfFw7H_4core7convert4FromINtB9_4BitsKj40_EE4from0Bb_
FN:29,_RNCNvXsd_NtNtCshrGKrJ5NDIV_7rust_vm4bits9from_impliINtNtCs5cb5cxfFw7H_4core7convert4FromINtB9_4BitsKj40_EE4from0Bb_
FN:29,_RNCNvXsf_NtNtCshrGKrJ5NDIV_7rust_vm4bits9from_impltINtNtCs5cb5cxfFw7H_4core7convert4FromINtB9_4BitsKj10_EE4from0Bb_
FN:29,_RNCNvXsg_NtNtCshrGKrJ5NDIV_7rust_vm4bits9from_implmINtNtCs5cb5cxfFw7H_4core7convert4FromINtB9_4BitsKj20_EE4from0Bb_
FN:29,_RNCNvXsh_NtNtCshrGKrJ5NDIV_7rust_vm4bits9from_implyINtNtCs5cb5cxfFw7H_4core7convert4FromINtB9_4BitsKj40_EE4from0Bb_
FN:29,_RNCNvXsi_NtNtCshrGKrJ5NDIV_7rust_vm4bits9from_impljINtNtCs5cb5cxfFw7H_4core7convert4FromINtB9_4BitsKj40_EE4from0Bb_
FN:44,_RNCNvXsj_NtNtCshrGKrJ5NDIV_7rust_vm4bits9from_implaINtNtCs5cb5cxfFw7H_4core7convert4FromRINtB9_4BitsKj8_EE4from0Bb_
FN:44,_RNCNvXsk_NtNtCshrGKrJ5NDIV_7rust_vm4bits9from_implsINtNtCs5cb5cxfFw7H_4core7convert4FromRINtB9_4BitsKj10_EE4from0Bb_
FN:44,_RNCNvXsl_NtNtCshrGKrJ5NDIV_7rust_vm4bits9from_impllINtNtCs5cb5cxfFw7H_4core7convert4FromRINtB9_4BitsKj20_EE4from0Bb_
FN:44,_RNCNvXsm_NtNtCshrGKrJ5NDIV_7rust_vm4bits9from_implxINtNtCs5cb5cxfFw7H_4core7convert4FromRINtB9_4BitsKj40_EE4from0Bb_
FN:44,_RNCNvXsn_NtNtCshrGKrJ5NDIV_7rust_vm4bits9from_impliINtNtCs5cb5cxfFw7H_4core7convert4FromRINtB9_4BitsKj40_EE4from0Bb_
FN:44,_RNCNvXsp_NtNtCshrGKrJ5NDIV_7rust_vm4bits9from_impltINtNtCs5cb5cxfFw7H_4core7convert4FromRINtB9_4BitsKj10_EE4from0Bb_
FN:44,_RNCNvXsq_NtNtCshrGKrJ5NDIV_7rust_vm4bits9from_implmINtNtCs5cb5cxfFw7H_4core7convert4FromRINtB9_4BitsKj20_EE4from0Bb_
FN:44,_RNCNvXsr_NtNtCshrGKrJ5NDIV_7rust_vm4bits9from_implyINtNtCs5cb5cxfFw7H_4core7convert4FromRINtB9_4BitsKj40_EE4from0Bb_
FN:44,_RNCNvXss_NtNtCshrGKrJ5NDIV_7rust_vm4bits9from_impljINtNtCs5cb5cxfFw7H_4core7convert4FromRINtB9_4BitsKj40_EE4from0Bb_
FN:9,_RNvXs1_NtNtCshrGKrJ5NDIV_7rust_vm4bits9from_implINtB7_4BitsKj20_EINtNtCs5cb5cxfFw7H_4core7convert4FrommE4from
FN:9,_RNvXs2_NtNtCshrGKrJ5NDIV_7rust_vm4bits9from_implINtB7_4BitsKj40_EINtNtCs5cb5cxfFw7H_4core7convert4FromyE4from
FN:9,_RNvXs3_NtNtCshrGKrJ5NDIV_7rust_vm4bits9from_implINtB7_4BitsKj40_EINtNtCs5cb5cxfFw7H_4core7convert4FromjE4from
FN:9,_RNvXs7_NtNtCshrGKrJ5NDIV_7rust_vm4bits9from_implINtB7_4BitsKj40_EINtNtCs5cb5cxfFw7H_4core7convert4FromxE4from
FN:9,_RNvXs8_NtNtCshrGKrJ5NDIV_7rust_vm4bits9from_implINtB7_4BitsKj40_EINtNtCs5cb5cxfFw7H_4core7convert4FromiE4from
FN:25,_RNvXsb_NtNtCshrGKrJ5NDIV_7rust_vm4bits9from_impllINtNtCs5cb5cxfFw7H_4core7convert4FromINtB7_4BitsKj20_EE4from
FN:25,_RNvXsc_NtNtCshrGKrJ5NDIV_7rust_vm4bits9from_implxINtNtCs5cb5cxfFw7H_4core7convert4FromINtB7_4BitsKj40_EE4from
FN:25,_RNvXsd_NtNtCshrGKrJ5NDIV_7rust_vm4bits9from_impliINtNtCs5cb5cxfFw7H_4core7convert4FromINtB7_4BitsKj40_EE4from
FN:25,_RNvXsf_NtNtCshrGKrJ5NDIV_7rust_vm4bits9from_impltINtNtCs5cb5cxfFw7H_4core7convert4FromINtB7_4BitsKj10_EE4from
FN:25,_RNvXsg_NtNtCshrGKrJ5NDIV_7rust_vm4bits9from_implmINtNtCs5cb5cxfFw7H_4core7convert4FromINtB7_4BitsKj20_EE4from
FN:25,_RNvXsh_NtNtCshrGKrJ5NDIV_7rust_vm4bits9from_implyINtNtCs5cb5cxfFw7H_4core7convert4FromINtB7_4BitsKj40_EE4from
FN:25,_RNvXsi_NtNtCshrGKrJ5NDIV_7rust_vm4bits9from_impljINtNtCs5cb5cxfFw7H_4core7convert4FromINtB7_4BitsKj40_EE4from
FN:40,_RNvXsj_NtNtCshrGKrJ5NDIV_7rust_vm4bits9from_implaINtNtCs5cb5cxfFw7H_4core7convert4FromRINtB7_4BitsKj8_EE4from
FN:40,_RNvXsk_NtNtCshrGKrJ5NDIV_7rust_vm4bits9from_implsINtNtCs5cb5cxfFw7H_4core7convert4FromRINtB7_4BitsKj10_EE4from
FN:40,_RNvXsl_NtNtCshrGKrJ5NDIV_7rust_vm4bits9from_impllINtNtCs5cb5cxfFw7H_4core7convert4FromRINtB7_4BitsKj20_EE4from
FN:40,_RNvXsm_NtNtCshrGKrJ5NDIV_7rust_vm4bits9from_implxINtNtCs5cb5cxfFw7H_4core7convert4FromRINtB7_4BitsKj40_EE4from
FN:40,_RNvXsn_NtNtCshrGKrJ5NDIV_7rust_vm4bits9from_impliINtNtCs5cb5cxfFw7H_4core7convert4FromRINtB7_4BitsKj40_EE4from
FN:40,_RNvXsp_NtNtCshrGKrJ5NDIV_7rust_vm4bits9from_impltINtNtCs5cb5cxfFw7H_4core7convert4FromRINtB7_4BitsKj10_EE4from
FN:40,_RNvXsq_NtNtCshrGKrJ5NDIV_7rust_vm4bits9from_implmINtNtCs5cb5cxfFw7H_4core7convert4FromRINtB7_4BitsKj20_EE4from
FN:40,_RNvXsr_NtNtCshrGKrJ5NDIV_7rust_vm4bits9from_implyINtNtCs5cb5cxfFw7H_4core7convert4FromRINtB7_4BitsKj40_EE4from
FN:40,_RNvXss_NtNtCshrGKrJ5NDIV_7rust_vm4bits9from_impljINtNtCs5cb5cxfFw7H_4core7convert4FromRINtB7_4BitsKj40_EE4from
FNDA:0,_RNCNvXNtNtCshrGKrJ5NDIV_7rust_vm4bits9from_implINtB6_4BitsKj10_ENtNtNtCs5cb5cxfFw7H_4core3str6traits7FromStr8from_str0B8_
FNDA:0,_RNCNvXNtNtCshrGKrJ5NDIV_7rust_vm4bits9from_implINtB6_4BitsKj10_ENtNtNtCs5cb5cxfFw7H_4core3str6traits7FromStr8from_strs_0B8_
FNDA:0,_RNCNvXNtNtCshrGKrJ5NDIV_7rust_vm4bits9from_implINtB6_4BitsKj2_ENtNtNtCs5cb5cxfFw7H_4core3str6traits7FromStr8from_str0B8_
FNDA:0,_RNCNvXNtNtCshrGKrJ5NDIV_7rust_vm4bits9from_implINtB6_4BitsKj2_ENtNtNtCs5cb5cxfFw7H_4core3str6traits7FromStr8from_strs_0B8_
FNDA:3,_RNCNvXNtNtCshrGKrJ5NDIV_7rust_vm4bits9from_implINtB6_4BitsKj4_ENtNtNtCs5cb5cxfFw7H_4core3str6traits7FromStr8from_str0B8_
FNDA:304,_RNCNvXNtNtCshrGKrJ5NDIV_7rust_vm4bits9from_implINtB6_4BitsKj4_ENtNtNtCs5cb5cxfFw7H_4core3str6traits7FromStr8from_strs_0B8_
FNDA:2,_RNCNvXNtNtCshrGKrJ5NDIV_7rust_vm4bits9from_implINtB6_4BitsKj8_ENtNtNtCs5cb5cxfFw7H_4core3str6traits7FromStr8from_str0B8_
FNDA:88,_RNCNvXNtNtCshrGKrJ5NDIV_7rust_vm4bits9from_implINtB6_4BitsKj8_ENtNtNtCs5cb5cxfFw7H_4core3str6traits7FromStr8from_strs_0B8_
FNDA:0,_RNCNvXNtNtCshrGKrJ5NDIV_7rust_vm4bits9from_implINtB6_4BitsKja_ENtNtNtCs5cb5cxfFw7H_4core3str6traits7FromStr8from_str0B8_
FNDA:50,_RNCNvXNtNtCshrGKrJ5NDIV_7rust_vm4bits9from_implINtB6_4BitsKja_ENtNtNtCs5cb5cxfFw7H_4core3str6traits7FromStr8from_strs_0B8_
FNDA:8,_RNCNvXs9_NtNtCshrGKrJ5NDIV_7rust_vm4bits9from_implaINtNtCs5cb5cxfFw7H_4core7convert4FromINtB9_4BitsKj8_EE4from0Bb_
FNDA:16,_RNCNvXsa_NtNtCshrGKrJ5NDIV_7rust_vm4bits9from_implsINtNtCs5cb5cxfFw7H_4core7convert4FromINtB9_4BitsKj10_EE4from0Bb_
FNDA:408,_RNCNvXse_NtNtCshrGKrJ5NDIV_7rust_vm4bits9from_implhINtNtCs5cb5cxfFw7H_4core7convert4FromINtB9_4BitsKj8_EE4from0Bb_
FNDA:8,_RNCNvXso_NtNtCshrGKrJ5NDIV_7rust_vm4bits9from_implhINtNtCs5cb5cxfFw7H_4core7convert4FromRINtB9_4BitsKj8_EE4from0Bb_
FNDA:46,_RNvXNtNtCshrGKrJ5NDIV_7rust_vm4bits9from_implINtB4_4BitsKj10_ENtNtNtCs5cb5cxfFw7H_4core3str6traits7FromStr8from_strB6_
FNDA:5,_RNvXNtNtCshrGKrJ5NDIV_7rust_vm4bits9from_implINtB4_4BitsKj2_ENtNtNtCs5cb5cxfFw7H_4core3str6traits7FromStr8from_strB6_
FNDA:150,_RNvXNtNtCshrGKrJ5NDIV_7rust_vm4bits9from_implINtB4_4BitsKj4_ENtNtNtCs5cb5cxfFw7H_4core3str6traits7FromStr8from_strB6_
FNDA:18,_RNvXNtNtCshrGKrJ5NDIV_7rust_vm4bits9from_implINtB4_4BitsKj8_ENtNtNtCs5cb5cxfFw7H_4core3str6traits7FromStr8from_strB6_
FNDA:5,_RNvXNtNtCshrGKrJ5NDIV_7rust_vm4bits9from_implINtB4_4BitsKja_ENtNtNtCs5cb5cxfFw7H_4core3str6traits7FromStr8from_strB6_
FNDA:59,_RNvXs0_NtNtCshrGKrJ5NDIV_7rust_vm4bits9from_implINtB7_4BitsKj10_EINtNtCs5cb5cxfFw7H_4core7convert4FromtE4from
FNDA:3,_RNvXs4_NtNtCshrGKrJ5NDIV_7rust_vm4bits9from_implINtB7_4BitsKj8_EINtNtCs5cb5cxfFw7H_4core7convert4FromaE4from
FNDA:1,_RNvXs5_NtNtCshrGKrJ5NDIV_7rust_vm4bits9from_implINtB7_4BitsKj10_EINtNtCs5cb5cxfFw7H_4core7convert4FromsE4from
FNDA:2,_RNvXs6_NtNtCshrGKrJ5NDIV_7rust_vm4bits9from_implINtB7_4BitsKj20_EINtNtCs5cb5cxfFw7H_4core7convert4FromlE4from
FNDA:349,_RNvXs_NtNtCshrGKrJ5NDIV_7rust_vm4bits9from_implINtB6_4BitsKj8_EINtNtCs5cb5cxfFw7H_4core7convert4FromhE4from
FNDA:1,_RNvXs9_NtNtCshrGKrJ5NDIV_7rust_vm4bits9from_implaINtNtCs5cb5cxfFw7H_4core7convert4FromINtB7_4BitsKj8_EE4from
FNDA:1,_RNvXsa_NtNtCshrGKrJ5NDIV_7rust_vm4bits9from_implsINtNtCs5cb5cxfFw7H_4core7convert4FromINtB7_4BitsKj10_EE4from
FNDA:51,_RNvXse_NtNtCshrGKrJ5NDIV_7rust_vm4bits9from_implhINtNtCs5cb5cxfFw7H_4core7convert4FromINtB7_4BitsKj8_EE4from
FNDA:1,_RNvXso_NtNtCshrGKrJ5NDIV_7rust_vm4bits9from_implhINtNtCs5cb5cxfFw7H_4core7convert4FromRINtB7_4BitsKj8_EE4from
FNDA:0,_RNCNvXsb_NtNtCshrGKrJ5NDIV_7rust_vm4bits9from_impllINtNtCs5cb5cxfFw7H_4core7convert4FromINtB9_4BitsKj20_EE4from0Bb_
FNDA:0,_RNCNvXsc_NtNtCshrGKrJ5NDIV_7rust_vm4bits9from_implxINtNtCs5cb5cxfFw7H_4core7convert4FromINtB9_4BitsKj40_EE4from0Bb_
FNDA:0,_RNCNvXsd_NtNtCshrGKrJ5NDIV_7rust_vm4bits9from_impliINtNtCs5cb5cxfFw7H_4core7convert4FromINtB9_4BitsKj40_EE4from0Bb_
FNDA:0,_RNCNvXsf_NtNtCshrGKrJ5NDIV_7rust_vm4bits9from_impltINtNtCs5cb5cxfFw7H_4core7convert4FromINtB9_4BitsKj10_EE4from0Bb_
FNDA:0,_RNCNvXsg_NtNtCshrGKrJ5NDIV_7rust_vm4bits9from_implmINtNtCs5cb5cxfFw7H_4core7convert4FromINtB9_4BitsKj20_EE4from0Bb_
FNDA:0,_RNCNvXsh_NtNtCshrGKrJ5NDIV_7rust_vm4bits9from_implyINtNtCs5cb5cxfFw7H_4core7convert4FromINtB9_4BitsKj40_EE4from0Bb_
FNDA:0,_RNCNvXsi_NtNtCshrGKrJ5NDIV_7rust_vm4bits9from_impljINtNtCs5cb5cxfFw7H_4core7convert4FromINtB9_4BitsKj40_EE4from0Bb_
FNDA:0,_RNCNvXsj_NtNtCshrGKrJ5NDIV_7rust_vm4bits9from_implaINtNtCs5cb5cxfFw7H_4core7convert4FromRINtB9_4BitsKj8_EE4from0Bb_
FNDA:0,_RNCNvXsk_NtNtCshrGKrJ5NDIV_7rust_vm4bits9from_implsINtNtCs5cb5cxfFw7H_4core7convert4FromRINtB9_4BitsKj10_EE4from0Bb_
FNDA:0,_RNCNvXsl_NtNtCshrGKrJ5NDIV_7rust_vm4bits9from_impllINtNtCs5cb5cxfFw7H_4core7convert4FromRINtB9_4BitsKj20_EE4from0Bb_
FNDA:0,_RNCNvXsm_NtNtCshrGKrJ5NDIV_7rust_vm4bits9from_implxINtNtCs5cb5cxfFw7H_4core7convert4FromRINtB9_4BitsKj40_EE4from0Bb_
FNDA:0,_RNCNvXsn_NtNtCshrGKrJ5NDIV_7rust_vm4bits9from_impliINtNtCs5cb5cxfFw7H_4core7convert4FromRINtB9_4BitsKj40_EE4from0Bb_
FNDA:0,_RNCNvXsp_NtNtCshrGKrJ5NDIV_7rust_vm4bits9from_impltINtNtCs5cb5cxfFw7H_4core7convert4FromRINtB9_4BitsKj10_EE4from0Bb_
FNDA:0,_RNCNvXsq_NtNtCshrGKrJ5NDIV_7rust_vm4bits9from_implmINtNtCs5cb5cxfFw7H_4core7convert4FromRINtB9_4BitsKj20_EE4from0Bb_
FNDA:0,_RNCNvXsr_NtNtCshrGKrJ5NDIV_7rust_vm4bits9from_implyINtNtCs5cb5cxfFw7H_4core7convert4FromRINtB9_4BitsKj40_EE4from0Bb_
FNDA:0,_RNCNvXss_NtNtCshrGKrJ5NDIV_7rust_vm4bits9from_impljINtNtCs5cb5cxfFw7H_4core7convert4FromRINtB9_4BitsKj40_EE4from0Bb_
FNDA:0,_RNvXs1_NtNtCshrGKrJ5NDIV_7rust_vm4bits9from_implINtB7_4BitsKj20_EINtNtCs5cb5cxfFw7H_4core7convert4FrommE4from
FNDA:0,_RNvXs2_NtNtCshrGKrJ5NDIV_7rust_vm4bits9from_implINtB7_4BitsKj40_EINtNtCs5cb5cxfFw7H_4core7convert4FromyE4from
FNDA:0,_RNvXs3_NtNtCshrGKrJ5NDIV_7rust_vm4bits9from_implINtB7_4BitsKj40_EINtNtCs5cb5cxfFw7H_4core7convert4FromjE4from
FNDA:0,_RNvXs7_NtNtCshrGKrJ5NDIV_7rust_vm4bits9from_implINtB7_4BitsKj40_EINtNtCs5cb5cxfFw7H_4core7convert4FromxE4from
FNDA:0,_RNvXs8_NtNtCshrGKrJ5NDIV_7rust_vm4bits9from_implINtB7_4BitsKj40_EINtNtCs5cb5cxfFw7H_4core7convert4FromiE4from
FNDA:0,_RNvXsb_NtNtCshrGKrJ5NDIV_7rust_vm4bits9from_impllINtNtCs5cb5cxfFw7H_4core7convert4FromINtB7_4BitsKj20_EE4from
FNDA:0,_RNvXsc_NtNtCshrGKrJ5NDIV_7rust_vm4bits9from_implxINtNtCs5cb5cxfFw7H_4core7convert4FromINtB7_4BitsKj40_EE4from
FNDA:0,_RNvXsd_NtNtCshrGKrJ5NDIV_7rust_vm4bits9from_impliINtNtCs5cb5cxfFw7H_4core7convert4FromINtB7_4BitsKj40_EE4from
FNDA:0,_RNvXsf_NtNtCshrGKrJ5NDIV_7rust_vm4bits9from_impltINtNtCs5cb5cxfFw7H_4core7convert4FromINtB7_4BitsKj10_EE4from
FNDA:0,_RNvXsg_NtNtCshrGKrJ5NDIV_7rust_vm4bits9from_implmINtNtCs5cb5cxfFw7H_4core7convert4FromINtB7_4BitsKj20_EE4from
FNDA:0,_RNvXsh_NtNtCshrGKrJ5NDIV_7rust_vm4bits9from_implyINtNtCs5cb5cxfFw7H_4core7convert4FromINtB7_4BitsKj40_EE4from
FNDA:0,_RNvXsi_NtNtCshrGKrJ5NDIV_7rust_vm4bits9from_impljINtNtCs5cb5cxfFw7H_4core7convert4FromINtB7_4BitsKj40_EE4from
FNDA:0,_RNvXsj_NtNtCshrGKrJ5NDIV_7rust_vm4bits9from_implaINtNtCs5cb5cxfFw7H_4core7convert4FromRINtB7_4BitsKj8_EE4from
FNDA:0,_RNvXsk_NtNtCshrGKrJ5NDIV_7rust_vm4bits9from_implsINtNtCs5cb5cxfFw7H_4core7convert4FromRINtB7_4BitsKj10_EE4from
FNDA:0,_RNvXsl_NtNtCshrGKrJ5NDIV_7rust_vm4bits9from_impllINtNtCs5cb5cxfFw7H_4core7convert4FromRINtB7_4BitsKj20_EE4from
FNDA:0,_RNvXsm_NtNtCshrGKrJ5NDIV_7rust_vm4bits9from_implxINtNtCs5cb5cxfFw7H_4core7convert4FromRINtB7_4BitsKj40_EE4from
FNDA:0,_RNvXsn_NtNtCshrGKrJ5NDIV_7rust_vm4bits9from_impliINtNtCs5cb5cxfFw7H_4core7convert4FromRINtB7_4BitsKj40_EE4from
FNDA:0,_RNvXsp_NtNtCshrGKrJ5NDIV_7rust_vm4bits9from_impltINtNtCs5cb5cxfFw7H_4core7convert4FromRINtB7_4BitsKj10_EE4from
FNDA:0,_RNvXsq_NtNtCshrGKrJ5NDIV_7rust_vm4bits9from_implmINtNtCs5cb5cxfFw7H_4core7convert4FromRINtB7_4BitsKj20_EE4from
FNDA:0,_RNvXsr_NtNtCshrGKrJ5NDIV_7rust_vm4bits9from_implyINtNtCs5cb5cxfFw7H_4core7convert4FromRINtB7_4BitsKj40_EE4from
FNDA:0,_RNvXss_NtNtCshrGKrJ5NDIV_7rust_vm4bits9from_impljINtNtCs5cb5cxfFw7H_4core7convert4FromRINtB7_4BitsKj40_EE4from
FNF:8
FNH:8
DA:9,414
DA:10,414
DA:11,3840
DA:12,3840
DA:13,3840
DA:14,414
DA:15,414
DA:25,53
DA:26,53
DA:27,53
DA:28,53
DA:29,432
DA:30,53
DA:40,1
DA:41,1
DA:42,1
DA:43,1
DA:44,8
DA:45,1
DA:58,224
DA:59,224
DA:61,224
DA:62,224
DA:63,1
DA:64,1
DA:65,1
DA:66,1
DA:68,223
DA:69,101
DA:70,101
DA:71,101
DA:73,96
DA:74,4
DA:75,4
DA:76,4
DA:77,4
DA:78,92
DA:80,442
DA:81,442
DA:82,442
DA:84,122
DA:85,1036
DA:86,1036
DA:87,750
DA:88,285
DA:90,1
DA:91,1
DA:92,1
DA:97,0
DA:100,213
DA:101,224
BRF:0
BRH:0
LF:55
LH:54
end_of_record
SF:C:\Users\quinn\Desktop\dev\rust_vm\src\bits\mod.rs
FN:68,_RINvMNtCshrGKrJ5NDIV_7rust_vm4bitsINtB3_4BitsKj10_E17split_into_chunksKj4_EB5_
FN:20,_RINvMNtCshrGKrJ5NDIV_7rust_vm4bitsINtB3_4BitsKj10_E5sliceKj2_EB5_
FN:20,_RINvMNtCshrGKrJ5NDIV_7rust_vm4bitsINtB3_4BitsKj10_E5sliceKj4_EB5_
FN:20,_RINvMNtCshrGKrJ5NDIV_7rust_vm4bitsINtB3_4BitsKj10_E5sliceKj8_EB5_
FN:20,_RINvMNtCshrGKrJ5NDIV_7rust_vm4bitsINtB3_4BitsKj10_E5sliceKja_EB5_
FN:59,_RINvMNtCshrGKrJ5NDIV_7rust_vm4bitsINtB3_4BitsKj10_E6resizeKja_EB5_
FN:59,_RINvMNtCshrGKrJ5NDIV_7rust_vm4bitsINtB3_4BitsKj20_E6resizeKj4_EB5_
FN:38,_RINvMNtCshrGKrJ5NDIV_7rust_vm4bitsINtB3_4BitsKj4_E24try_from_unsigned_numberhEB5_
FN:38,_RINvMNtCshrGKrJ5NDIV_7rust_vm4bitsINtB3_4BitsKj8_E24try_from_unsigned_numberhEB5_
FN:59,_RINvMNtCshrGKrJ5NDIV_7rust_vm4bitsINtB3_4BitsKj8_E6resizeKBI_EB5_
FN:59,_RINvMNtCshrGKrJ5NDIV_7rust_vm4bitsINtB3_4BitsKj8_E6resizeKj4_EB5_
FN:62,_RNCINvMNtCshrGKrJ5NDIV_7rust_vm4bitsINtB5_4BitsKj10_E6resizeKja_E0B7_
FN:62,_RNCINvMNtCshrGKrJ5NDIV_7rust_vm4bitsINtB5_4BitsKj20_E6resizeKj4_E0B7_
FN:54,_RNCINvMNtCshrGKrJ5NDIV_7rust_vm4bitsINtB5_4BitsKj4_E24try_from_unsigned_numberhE0B7_
FN:54,_RNCINvMNtCshrGKrJ5NDIV_7rust_vm4bitsINtB5_4BitsKj8_E24try_from_unsigned_numberhE0B7_
FN:62,_RNCINvMNtCshrGKrJ5NDIV_7rust_vm4bitsINtB5_4BitsKj8_E6resizeKBK_E0B7_
FN:62,_RNCINvMNtCshrGKrJ5NDIV_7rust_vm4bitsINtB5_4BitsKj8_E6resizeKj4_E0B7_
FN:35,_RNCNvMNtCshrGKrJ5NDIV_7rust_vm4bitsINtB4_4BitsKj10_E8to_usize0B6_
FN:35,_RNCNvMNtCshrGKrJ5NDIV_7rust_vm4bitsINtB4_4BitsKj4_E8to_usize0B6_
FN:35,_RNCNvMNtCshrGKrJ5NDIV_7rust_vm4bitsINtB4_4BitsKj8_E8to_usize0B6_
FN:35,_RNCNvMNtCshrGKrJ5NDIV_7rust_vm4bitsINtB4_4BitsKja_E8to_usize0B6_
FN:31,_RNvMNtCshrGKrJ5NDIV_7rust_vm4bitsINtB2_4BitsKj10_E8to_usizeB4_
FN:16,_RNvMNtCshrGKrJ5NDIV_7rust_vm4bitsINtB2_4BitsKj4_E4iterB4_
FN:27,_RNvMNtCshrGKrJ5NDIV_7rust_vm4bitsINtB2_4BitsKj4_E8iter_mutB4_
FN:31,_RNvMNtCshrGKrJ5NDIV_7rust_vm4bitsINtB2_4BitsKj4_E8to_usizeB4_
FN:27,_RNvMNtCshrGKrJ5NDIV_7rust_vm4bitsINtB2_4BitsKj8_E8iter_mutB4_
FN:31,_RNvMNtCshrGKrJ5NDIV_7rust_vm4bitsINtB2_4BitsKj8_E8to_usizeB4_
FN:27,_RNvMNtCshrGKrJ5NDIV_7rust_vm4bitsINtB2_4BitsKja_E8iter_mutB4_
FN:31,_RNvMNtCshrGKrJ5NDIV_7rust_vm4bitsINtB2_4BitsKja_E8to_usizeB4_
FN:90,_RNvXs0_NtCshrGKrJ5NDIV_7rust_vm4bitsINtB5_4BitsKj2_ENtNtCs5cb5cxfFw7H_4core3fmt7Display3fmtB7_
FN:90,_RNvXs0_NtCshrGKrJ5NDIV_7rust_vm4bitsINtB5_4BitsKj4_ENtNtCs5cb5cxfFw7H_4core3fmt7Display3fmtB7_
FN:90,_RNvXs0_NtCshrGKrJ5NDIV_7rust_vm4bitsINtB5_4BitsKj8_ENtNtCs5cb5cxfFw7H_4core3fmt7Display3fmtB7_
FN:90,_RNvXs0_NtCshrGKrJ5NDIV_7rust_vm4bitsINtB5_4BitsKja_ENtNtCs5cb5cxfFw7H_4core3fmt7Display3fmtB7_
FN:99,_RNvXs1_NtCshrGKrJ5NDIV_7rust_vm4bitsINtB5_4BitsKj3_EINtNtCs5cb5cxfFw7H_4core7convert4FromAbBK_E4fromB7_
FN:99,_RNvXs1_NtCshrGKrJ5NDIV_7rust_vm4bitsINtB5_4BitsKj4_EINtNtCs5cb5cxfFw7H_4core7convert4FromAbBK_E4fromB7_
FN:99,_RNvXs1_NtCshrGKrJ5NDIV_7rust_vm4bitsINtB5_4BitsKj8_EINtNtCs5cb5cxfFw7H_4core7convert4FromAbBK_E4fromB7_
FN:99,_RNvXs1_NtCshrGKrJ5NDIV_7rust_vm4bitsINtB5_4BitsKja_EINtNtCs5cb5cxfFw7H_4core7convert4FromAbBK_E4fromB7_
FN:105,_RNvXs2_NtCshrGKrJ5NDIV_7rust_vm4bitsAbj4_INtNtCs5cb5cxfFw7H_4core7convert4FromINtB5_4BitsKBA_EE4fromB7_
FN:105,_RNvXs2_NtCshrGKrJ5NDIV_7rust_vm4bitsAbj8_INtNtCs5cb5cxfFw7H_4core7convert4FromINtB5_4BitsKBA_EE4fromB7_
FN:113,_RNvXs3_NtCshrGKrJ5NDIV_7rust_vm4bitsINtB5_4BitsKj3_ENtNtNtNtCs5cb5cxfFw7H_4core4iter6traits7collect12IntoIterator9into_iterB7_
FN:120,_RNvXs4_NtCshrGKrJ5NDIV_7rust_vm4bitsINtB5_4BitsKj10_EINtNtNtCs5cb5cxfFw7H_4core3ops5index5IndexjE5indexB7_
FN:120,_RNvXs4_NtCshrGKrJ5NDIV_7rust_vm4bitsINtB5_4BitsKj8_EINtNtNtCs5cb5cxfFw7H_4core3ops5index5IndexjE5indexB7_
FN:120,_RNvXs4_NtCshrGKrJ5NDIV_7rust_vm4bitsINtB5_4BitsKja_EINtNtNtCs5cb5cxfFw7H_4core3ops5index5IndexjE5indexB7_
FN:126,_RNvXs5_NtCshrGKrJ5NDIV_7rust_vm4bitsINtB5_4BitsKj4_ENtNtCs5cb5cxfFw7H_4core3cmp9PartialEq2eqB7_
FN:126,_RNvXs5_NtCshrGKrJ5NDIV_7rust_vm4bitsINtB5_4BitsKj8_ENtNtCs5cb5cxfFw7H_4core3cmp9PartialEq2eqB7_
FN:126,_RNvXs5_NtCshrGKrJ5NDIV_7rust_vm4bitsINtB5_4BitsKja_EINtNtCs5cb5cxfFw7H_4core3cmp9PartialEqIBz_Kj8_EE2eqB7_
FN:133,_RNvXs6_NtCshrGKrJ5NDIV_7rust_vm4bitsINtB5_4BitsKj8_ENtNtNtCs5cb5cxfFw7H_4core3ops5arith3Add3addB7_
FN:133,_RNvXs6_NtCshrGKrJ5NDIV_7rust_vm4bitsINtB5_4BitsKja_ENtNtNtCs5cb5cxfFw7H_4core3ops5arith3Add3addB7_
FN:149,_RNvXs8_NtCshrGKrJ5NDIV_7rust_vm4bitsINtB5_4BitsKj8_ENtNtNtCs5cb5cxfFw7H_4core3ops5arith3Sub3subB7_
FN:156,_RNvXs9_NtCshrGKrJ5NDIV_7rust_vm4bitsINtB5_4BitsKj8_ENtNtNtCs5cb5cxfFw7H_4core3ops5arith9SubAssign10sub_assignB7_
FN:82,_RNvXs_NtCshrGKrJ5NDIV_7rust_vm4bitsINtB4_4BitsKj4_ENtNtCs5cb5cxfFw7H_4core7default7Default7defaultB6_
FN:82,_RNvXs_NtCshrGKrJ5NDIV_7rust_vm4bitsINtB4_4BitsKj8_ENtNtCs5cb5cxfFw7H_4core7default7Default7defaultB6_
FN:82,_RNvXs_NtCshrGKrJ5NDIV_7rust_vm4bitsINtB4_4BitsKja_ENtNtCs5cb5cxfFw7H_4core7default7Default7defaultB6_
FN:140,_RNvXININtCshrGKrJ5NDIV_7rust_vm4bitss7_0KpEINtB5_4BitsKpENtNtNtCs5cb5cxfFw7H_4core3ops5arith9AddAssign10add_assignB7_
FNDA:1,_RINvMNtCshrGKrJ5NDIV_7rust_vm4bitsINtB3_4BitsKj10_E17split_into_chunksKj4_EB5_
FNDA:2,_RINvMNtCshrGKrJ5NDIV_7rust_vm4bitsINtB3_4BitsKj10_E5sliceKj2_EB5_
FNDA:215,_RINvMNtCshrGKrJ5NDIV_7rust_vm4bitsINtB3_4BitsKj10_E5sliceKj4_EB5_
FNDA:13,_RINvMNtCshrGKrJ5NDIV_7rust_vm4bitsINtB3_4BitsKj10_E5sliceKj8_EB5_
FNDA:3,_RINvMNtCshrGKrJ5NDIV_7rust_vm4bitsINtB3_4BitsKj10_E5sliceKja_EB5_
FNDA:43,_RINvMNtCshrGKrJ5NDIV_7rust_vm4bitsINtB3_4BitsKj10_E6resizeKja_EB5_
FNDA:2,_RINvMNtCshrGKrJ5NDIV_7rust_vm4bitsINtB3_4BitsKj20_E6resizeKj4_EB5_
FNDA:8,_RINvMNtCshrGKrJ5NDIV_7rust_vm4bitsINtB3_4BitsKj4_E24try_from_unsigned_numberhEB5_
FNDA:4,_RINvMNtCshrGKrJ5NDIV_7rust_vm4bitsINtB3_4BitsKj8_E24try_from_unsigned_numberhEB5_
FNDA:83,_RINvMNtCshrGKrJ5NDIV_7rust_vm4bitsINtB3_4BitsKj8_E6resizeKBI_EB5_
FNDA:63,_RINvMNtCshrGKrJ5NDIV_7rust_vm4bitsINtB3_4BitsKj8_E6resizeKj4_EB5_
FNDA:430,_RNCINvMNtCshrGKrJ5NDIV_7rust_vm4bitsINtB5_4BitsKj10_E6resizeKja_E0B7_
FNDA:8,_RNCINvMNtCshrGKrJ5NDIV_7rust_vm4bitsINtB5_4BitsKj20_E6resizeKj4_E0B7_
FNDA:28,_RNCINvMNtCshrGKrJ5NDIV_7rust_vm4bitsINtB5_4BitsKj4_E24try_from_unsigned_numberhE0B7_
FNDA:32,_RNCINvMNtCshrGKrJ5NDIV_7rust_vm4bitsINtB5_4BitsKj8_E24try_from_unsigned_numberhE0B7_
FNDA:664,_RNCINvMNtCshrGKrJ5NDIV_7rust_vm4bitsINtB5_4BitsKj8_E6resizeKBK_E0B7_
FNDA:252,_RNCINvMNtCshrGKrJ5NDIV_7rust_vm4bitsINtB5_4BitsKj8_E6resizeKj4_E0B7_
FNDA:16,_RNCNvMNtCshrGKrJ5NDIV_7rust_vm4bitsINtB4_4BitsKj10_E8to_usize0B6_
FNDA:3060,_RNCNvMNtCshrGKrJ5NDIV_7rust_vm4bitsINtB4_4BitsKj4_E8to_usize0B6_
FNDA:2184,_RNCNvMNtCshrGKrJ5NDIV_7rust_vm4bitsINtB4_4BitsKj8_E8to_usize0B6_
FNDA:860,_RNCNvMNtCshrGKrJ5NDIV_7rust_vm4bitsINtB4_4BitsKja_E8to_usize0B6_
FNDA:1,_RNvMNtCshrGKrJ5NDIV_7rust_vm4bitsINtB2_4BitsKj10_E8to_usizeB4_
FNDA:1,_RNvMNtCshrGKrJ5NDIV_7rust_vm4bitsINtB2_4BitsKj4_E4iterB4_
FNDA:1,_RNvMNtCshrGKrJ5NDIV_7rust_vm4bitsINtB2_4BitsKj4_E8iter_mutB4_
FNDA:765,_RNvMNtCshrGKrJ5NDIV_7rust_vm4bitsINtB2_4BitsKj4_E8to_usizeB4_
FNDA:39,_RNvMNtCshrGKrJ5NDIV_7rust_vm4bitsINtB2_4BitsKj8_E8iter_mutB4_
FNDA:273,_RNvMNtCshrGKrJ5NDIV_7rust_vm4bitsINtB2_4BitsKj8_E8to_usizeB4_
FNDA:0,_RNvMNtCshrGKrJ5NDIV_7rust_vm4bitsINtB2_4BitsKja_E8iter_mutB4_
FNDA:86,_RNvMNtCshrGKrJ5NDIV_7rust_vm4bitsINtB2_4BitsKja_E8to_usizeB4_
FNDA:7,_RNvXs0_NtCshrGKrJ5NDIV_7rust_vm4bitsINtB5_4BitsKj2_ENtNtCs5cb5cxfFw7H_4core3fmt7Display3fmtB7_
FNDA:188,_RNvXs0_NtCshrGKrJ5NDIV_7rust_vm4bitsINtB5_4BitsKj4_ENtNtCs5cb5cxfFw7H_4core3fmt7Display3fmtB7_
FNDA:20,_RNvXs0_NtCshrGKrJ5NDIV_7rust_vm4bitsINtB5_4BitsKj8_ENtNtCs5cb5cxfFw7H_4core3fmt7Display3fmtB7_
FNDA:5,_RNvXs0_NtCshrGKrJ5NDIV_7rust_vm4bitsINtB5_4BitsKja_ENtNtCs5cb5cxfFw7H_4core3fmt7Display3fmtB7_
FNDA:1,_RNvXs1_NtCshrGKrJ5NDIV_7rust_vm4bitsINtB5_4BitsKj3_EINtNtCs5cb5cxfFw7H_4core7convert4FromAbBK_E4fromB7_
FNDA:6,_RNvXs1_NtCshrGKrJ5NDIV_7rust_vm4bitsINtB5_4BitsKj4_EINtNtCs5cb5cxfFw7H_4core7convert4FromAbBK_E4fromB7_
FNDA:74,_RNvXs1_NtCshrGKrJ5NDIV_7rust_vm4bitsINtB5_4BitsKj8_EINtNtCs5cb5cxfFw7H_4core7convert4FromAbBK_E4fromB7_
FNDA:43,_RNvXs1_NtCshrGKrJ5NDIV_7rust_vm4bitsINtB5_4BitsKja_EINtNtCs5cb5cxfFw7H_4core7convert4FromAbBK_E4fromB7_
FNDA:1,_RNvXs2_NtCshrGKrJ5NDIV_7rust_vm4bitsAbj4_INtNtCs5cb5cxfFw7H_4core7convert4FromINtB5_4BitsKBA_EE4fromB7_
FNDA:1,_RNvXs2_NtCshrGKrJ5NDIV_7rust_vm4bitsAbj8_INtNtCs5cb5cxfFw7H_4core7convert4FromINtB5_4BitsKBA_EE4fromB7_
FNDA:1,_RNvXs3_NtCshrGKrJ5NDIV_7rust_vm4bitsINtB5_4BitsKj3_ENtNtNtNtCs5cb5cxfFw7H_4core4iter6traits7collect12IntoIterator9into_iterB7_
FNDA:3,_RNvXs4_NtCshrGKrJ5NDIV_7rust_vm4bitsINtB5_4BitsKj10_EINtNtNtCs5cb5cxfFw7H_4core3ops5index5IndexjE5indexB7_
FNDA:1136,_RNvXs4_NtCshrGKrJ5NDIV_7rust_vm4bitsINtB5_4BitsKj8_EINtNtNtCs5cb5cxfFw7H_4core3ops5index5IndexjE5indexB7_
FNDA:860,_RNvXs4_NtCshrGKrJ5NDIV_7rust_vm4bitsINtB5_4BitsKja_EINtNtNtCs5cb5cxfFw7H_4core3ops5index5IndexjE5indexB7_
FNDA:166,_RNvXs5_NtCshrGKrJ5NDIV_7rust_vm4bitsINtB5_4BitsKj4_ENtNtCs5cb5cxfFw7H_4core3cmp9PartialEq2eqB7_
FNDA:87,_RNvXs5_NtCshrGKrJ5NDIV_7rust_vm4bitsINtB5_4BitsKj8_ENtNtCs5cb5cxfFw7H_4core3cmp9PartialEq2eqB7_
FNDA:43,_RNvXs5_NtCshrGKrJ5NDIV_7rust_vm4bitsINtB5_4BitsKja_EINtNtCs5cb5cxfFw7H_4core3cmp9PartialEqIBz_Kj8_EE2eqB7_
FNDA:1,_RNvXs6_NtCshrGKrJ5NDIV_7rust_vm4bitsINtB5_4BitsKj8_ENtNtNtCs5cb5cxfFw7H_4core3ops5arith3Add3addB7_
FNDA:43,_RNvXs6_NtCshrGKrJ5NDIV_7rust_vm4bitsINtB5_4BitsKja_ENtNtNtCs5cb5cxfFw7H_4core3ops5arith3Add3addB7_
FNDA:1,_RNvXs8_NtCshrGKrJ5NDIV_7rust_vm4bitsINtB5_4BitsKj8_ENtNtNtCs5cb5cxfFw7H_4core3ops5arith3Sub3subB7_
FNDA:1,_RNvXs9_NtCshrGKrJ5NDIV_7rust_vm4bitsINtB5_4BitsKj8_ENtNtNtCs5cb5cxfFw7H_4core3ops5arith9SubAssign10sub_assignB7_
FNDA:44,_RNvXs_NtCshrGKrJ5NDIV_7rust_vm4bitsINtB4_4BitsKj4_ENtNtCs5cb5cxfFw7H_4core7default7Default7defaultB6_
FNDA:748,_RNvXs_NtCshrGKrJ5NDIV_7rust_vm4bitsINtB4_4BitsKj8_ENtNtCs5cb5cxfFw7H_4core7default7Default7defaultB6_
FNDA:11,_RNvXs_NtCshrGKrJ5NDIV_7rust_vm4bitsINtB4_4BitsKja_ENtNtCs5cb5cxfFw7H_4core7default7Default7defaultB6_
FNDA:0,_RNvXININtCshrGKrJ5NDIV_7rust_vm4bitss7_0KpEINtB5_4BitsKpENtNtNtCs5cb5cxfFw7H_4core3ops5arith9AddAssign10add_assignB7_
FNF:21
FNH:20
DA:16,1
DA:17,1
DA:18,1
DA:20,233
DA:21,233
DA:22,233
DA:23,233
DA:24,233
DA:25,233
DA:27,40
DA:28,40
DA:29,40
DA:31,1125
DA:32,1125
DA:33,1125
DA:34,1125
DA:35,6120
DA:36,1125
DA:38,12
DA:39,12
DA:40,12
DA:42,12
DA:44,12
DA:45,1
DA:46,1
DA:47,1
DA:48,1
DA:49,11
DA:51,11
DA:52,11
DA:53,11
DA:54,60
DA:56,11
DA:57,12
DA:59,191
DA:60,191
DA:61,191
DA:62,1354
DA:63,1354
DA:64,1354
DA:65,191
DA:66,191
DA:68,1
DA:69,1
DA:70,1
DA:71,4
DA:72,4
DA:73,4
DA:74,4
DA:75,4
DA:76,1
DA:77,1
DA:78,1
DA:82,803
DA:83,803
DA:84,803
DA:85,803
DA:86,803
DA:90,220
DA:91,976
DA:92,976
DA:94,220
DA:95,220
DA:99,124
DA:100,124
DA:101,124
DA:105,2
DA:106,2
DA:107,2
DA:113,1
DA:114,1
DA:115,1
DA:120,1999
DA:121,1999
DA:122,1999
DA:126,296
DA:127,296
DA:128,296
DA:133,44
DA:134,44
DA:135,44
DA:136,44
DA:140,0
DA:141,0
DA:142,0
DA:143,0
DA:144,0
DA:149,1
DA:150,1
DA:151,1
DA:152,1
DA:156,1
DA:157,1
DA:158,1
DA:159,1
BRF:0
BRH:0
LF:98
LH:93
end_of_record
SF:C:\Users\quinn\Desktop\dev\rust_vm\src\control_rom.rs
FN:19,_RNvMNtCshrGKrJ5NDIV_7rust_vm11control_romNtB2_10ControlRom19get_control_signals
FN:187,_RNvNtNtCshrGKrJ5NDIV_7rust_vm11control_rom5testss_19not_yet_implemented
FN:102,_RNvNtNtCshrGKrJ5NDIV_7rust_vm11control_rom5testss_3add
FN:130,_RNvNtNtCshrGKrJ5NDIV_7rust_vm11control_rom5testss_3and
FN:144,_RNvNtNtCshrGKrJ5NDIV_7rust_vm11control_rom5testss_3nor
FN:116,_RNvNtNtCshrGKrJ5NDIV_7rust_vm11control_rom5testss_3sub
FN:158,_RNvNtNtCshrGKrJ5NDIV_7rust_vm11control_rom5testss_3xor
FN:172,_RNvNtNtCshrGKrJ5NDIV_7rust_vm11control_rom5testss_6rshift
FNDA:50,_RNvMNtCshrGKrJ5NDIV_7rust_vm11control_romNtB2_10ControlRom19get_control_signals
FNDA:1,_RNvNtNtCshrGKrJ5NDIV_7rust_vm11control_rom5testss_19not_yet_implemented
FNDA:1,_RNvNtNtCshrGKrJ5NDIV_7rust_vm11control_rom5testss_3add
FNDA:1,_RNvNtNtCshrGKrJ5NDIV_7rust_vm11control_rom5testss_3and
FNDA:1,_RNvNtNtCshrGKrJ5NDIV_7rust_vm11control_rom5testss_3nor
FNDA:1,_RNvNtNtCshrGKrJ5NDIV_7rust_vm11control_rom5testss_3sub
FNDA:1,_RNvNtNtCshrGKrJ5NDIV_7rust_vm11control_rom5testss_3xor
FNDA:1,_RNvNtNtCshrGKrJ5NDIV_7rust_vm11control_rom5testss_6rshift
FNF:8
FNH:8
DA:19,50
DA:20,50
DA:21,50
DA:22,1
DA:23,1
DA:24,1
DA:25,1
DA:26,49
DA:27,11
DA:28,11
DA:29,11
DA:30,11
DA:31,38
DA:32,9
DA:33,9
DA:34,9
DA:35,9
DA:36,9
DA:37,29
DA:38,3
DA:39,3
DA:40,3
DA:41,3
DA:42,3
DA:43,26
DA:44,1
DA:45,1
DA:46,1
DA:47,1
DA:48,1
DA:49,25
DA:50,1
DA:51,1
DA:52,1
DA:53,1
DA:54,1
DA:55,24
DA:56,3
DA:57,3
DA:58,3
DA:59,3
DA:60,3
DA:61,21
DA:62,3
DA:63,3
DA:64,3
DA:65,3
DA:66,3
DA:67,18
DA:68,6
DA:69,6
DA:70,6
DA:71,6
DA:72,6
DA:73,6
DA:74,12
DA:75,7
DA:76,7
DA:77,7
DA:78,7
DA:79,7
DA:80,7
DA:81,7
DA:82,5
DA:83,2
DA:84,2
DA:85,2
DA:86,2
DA:87,3
DA:88,2
DA:89,2
DA:90,2
DA:91,2
DA:93,1
DA:95,49
DA:102,1
DA:103,1
DA:104,1
DA:106,1
DA:107,1
DA:108,1
DA:109,1
DA:110,1
DA:111,1
DA:113,1
DA:116,1
DA:117,1
DA:118,1
DA:120,1
DA:121,1
DA:122,1
DA:123,1
DA:124,1
DA:125,1
DA:127,1
DA:130,1
DA:131,1
DA:132,1
DA:134,1
DA:135,1
DA:136,1
DA:137,1
DA:138,1
DA:139,1
DA:141,1
DA:144,1
DA:145,1
DA:146,1
DA:148,1
DA:149,1
DA:150,1
DA:151,1
DA:152,1
DA:153,1
DA:155,1
DA:158,1
DA:159,1
DA:160,1
DA:162,1
DA:163,1
DA:164,1
DA:165,1
DA:166,1
DA:167,1
DA:169,1
DA:172,1
DA:173,1
DA:174,1
DA:176,1
DA:177,1
DA:178,1
DA:179,1
DA:180,1
DA:181,1
DA:183,1
DA:187,1
DA:188,1
DA:189,1
BRF:0
BRH:0
LF:138
LH:138
end_of_record
SF:C:\Users\quinn\Desktop\dev\rust_vm\src\error.rs
FN:15,_RNvXNtCshrGKrJ5NDIV_7rust_vm5errorNtB2_7VmErrorNtNtCs5cb5cxfFw7H_4core3fmt7Display3fmt
FN:28,_RNvXs0_NtCshrGKrJ5NDIV_7rust_vm5errorNtB5_7VmErrorINtNtCs5cb5cxfFw7H_4core7convert4FromNtNtB7_6parser11ParserErrorE4from
FN:33,_RNvXs1_NtCshrGKrJ5NDIV_7rust_vm5errorNtB5_7VmErrorINtNtCs5cb5cxfFw7H_4core7convert4FromNtNtNtB7_4bits5error14BitsParseErrorE4from
FN:38,_RNvXs2_NtCshrGKrJ5NDIV_7rust_vm5errorNtB5_7VmErrorINtNtCs5cb5cxfFw7H_4core7convert4FromNtNtNtCsja4ZeDc2XAj_3std2io5error5ErrorE4from
FNDA:7,_RNvXNtCshrGKrJ5NDIV_7rust_vm5errorNtB2_7VmErrorNtNtCs5cb5cxfFw7H_4core3fmt7Display3fmt
FNDA:13,_RNvXs0_NtCshrGKrJ5NDIV_7rust_vm5errorNtB5_7VmErrorINtNtCs5cb5cxfFw7H_4core7convert4FromNtNtB7_6parser11ParserErrorE4from
FNDA:7,_RNvXs1_NtCshrGKrJ5NDIV_7rust_vm5errorNtB5_7VmErrorINtNtCs5cb5cxfFw7H_4core7convert4FromNtNtNtB7_4bits5error14BitsParseErrorE4from
FNDA:0,_RNvXs2_NtCshrGKrJ5NDIV_7rust_vm5errorNtB5_7VmErrorINtNtCs5cb5cxfFw7H_4core7convert4FromNtNtNtCsja4ZeDc2XAj_3std2io5error5ErrorE4from
FNF:4
FNH:3
DA:15,7
DA:16,7
DA:17,7
DA:18,0
DA:19,0
DA:20,0
DA:22,7
DA:28,13
DA:29,13
DA:30,13
DA:33,7
DA:34,7
DA:35,7
DA:38,0
DA:39,0
DA:40,0
BRF:0
BRH:0
LF:16
LH:10
end_of_record
SF:C:\Users\quinn\Desktop\dev\rust_vm\src\instruction_memory.rs
FN:18,_RNvMs_NtCshrGKrJ5NDIV_7rust_vm18instruction_memoryNtB4_17InstructionMemory17load_instructions
FN:10,_RNvXNtCshrGKrJ5NDIV_7rust_vm18instruction_memoryNtB2_17InstructionMemoryNtNtCs5cb5cxfFw7H_4core7default7Default7default
FN:37,_RNvNtNtCshrGKrJ5NDIV_7rust_vm18instruction_memory5tests16make_instruction
FN:43,_RNvNtNtCshrGKrJ5NDIV_7rust_vm18instruction_memory5testss_33load_instructions_overflow_panics
FNDA:12,_RNvMs_NtCshrGKrJ5NDIV_7rust_vm18instruction_memoryNtB4_17InstructionMemory17load_instructions
FNDA:12,_RNvXNtCshrGKrJ5NDIV_7rust_vm18instruction_memoryNtB2_17InstructionMemoryNtNtCs5cb5cxfFw7H_4core7default7Default7default
FNDA:1,_RNvNtNtCshrGKrJ5NDIV_7rust_vm18instruction_memory5tests16make_instruction
FNDA:1,_RNvNtNtCshrGKrJ5NDIV_7rust_vm18instruction_memory5testss_33load_instructions_overflow_panics
FNF:4
FNH:4
DA:10,12
DA:11,12
DA:12,12
DA:13,12
DA:14,12
DA:18,12
DA:19,12
DA:20,12
DA:21,12
DA:22,1071
DA:23,1071
DA:24,1070
DA:25,1070
DA:26,1
DA:29,11
DA:30,12
DA:37,1
DA:38,1
DA:39,1
DA:43,1
DA:44,1
DA:45,1
DA:46,1
DA:47,1
DA:48,1
DA:49,0
DA:51,1
BRF:0
BRH:0
LF:27
LH:26
end_of_record
SF:C:\Users\quinn\Desktop\dev\rust_vm\src\parser\mod.rs
FN:36,_RINvNtCshrGKrJ5NDIV_7rust_vm6parser13parse_programRNtNtCsja4ZeDc2XAj_3std4path4PathEB4_
FN:36,_RINvNtCshrGKrJ5NDIV_7rust_vm6parser13parse_programReEB4_
FN:41,_RNCINvNtCshrGKrJ5NDIV_7rust_vm6parser13parse_programRNtNtCsja4ZeDc2XAj_3std4path4PathE0B6_
FN:41,_RNCINvNtCshrGKrJ5NDIV_7rust_vm6parser13parse_programReE0B6_
FN:193,_RNvNtCshrGKrJ5NDIV_7rust_vm6parser10parse_cond
FN:203,_RNvNtCshrGKrJ5NDIV_7rust_vm6parser13parse_address
FN:208,_RNvNtCshrGKrJ5NDIV_7rust_vm6parser17parse_instruction
FN:28,_RNvNtCshrGKrJ5NDIV_7rust_vm6parser21parse_register_string
FN:16,_RNvXNtCshrGKrJ5NDIV_7rust_vm6parserNtB2_11ParserErrorNtNtCs5cb5cxfFw7H_4core3fmt7Display3fmt
FNDA:11,_RINvNtCshrGKrJ5NDIV_7rust_vm6parser13parse_programRNtNtCsja4ZeDc2XAj_3std4path4PathEB4_
FNDA:20,_RINvNtCshrGKrJ5NDIV_7rust_vm6parser13parse_programReEB4_
FNDA:0,_RNCINvNtCshrGKrJ5NDIV_7rust_vm6parser13parse_programRNtNtCsja4ZeDc2XAj_3std4path4PathE0B6_
FNDA:1,_RNCINvNtCshrGKrJ5NDIV_7rust_vm6parser13parse_programReE0B6_
FNDA:2,_RNvNtCshrGKrJ5NDIV_7rust_vm6parser10parse_cond
FNDA:5,_RNvNtCshrGKrJ5NDIV_7rust_vm6parser13parse_address
FNDA:66,_RNvNtCshrGKrJ5NDIV_7rust_vm6parser17parse_instruction
FNDA:74,_RNvNtCshrGKrJ5NDIV_7rust_vm6parser21parse_register_string
FNDA:7,_RNvXNtCshrGKrJ5NDIV_7rust_vm6parserNtB2_11ParserErrorNtNtCs5cb5cxfFw7H_4core3fmt7Display3fmt
FNF:7
FNH:7
DA:16,7
DA:17,7
DA:18,1
DA:19,1
DA:20,5
DA:22,7
DA:28,74
DA:29,74
DA:30,2
DA:31,72
DA:32,72
DA:33,74
DA:36,31
DA:37,31
DA:39,31
DA:40,31
DA:41,31
DA:42,30
DA:44,83
DA:45,71
DA:46,71
DA:47,71
DA:48,69
DA:49,2
DA:51,69
DA:52,69
DA:53,69
DA:54,14
DA:55,14
DA:56,14
DA:57,14
DA:58,1
DA:59,13
DA:61,55
DA:62,7
DA:63,7
DA:64,0
DA:66,7
DA:67,4
DA:68,4
DA:69,4
DA:71,3
DA:72,3
DA:73,3
DA:75,7
DA:76,0
DA:77,7
DA:79,48
DA:80,3
DA:81,3
DA:82,0
DA:84,3
DA:85,0
DA:86,3
DA:87,3
DA:88,3
DA:89,3
DA:91,45
DA:92,1
DA:93,1
DA:94,0
DA:96,1
DA:97,1
DA:98,0
DA:100,1
DA:101,0
DA:102,1
DA:104,1
DA:105,1
DA:106,1
DA:107,1
DA:109,44
DA:110,13
DA:111,12
DA:112,1
DA:114,12
DA:115,11
DA:116,1
DA:118,9
DA:119,1
DA:120,8
DA:121,8
DA:122,8
DA:123,7
DA:125,31
DA:126,4
DA:127,4
DA:128,0
DA:130,4
DA:131,4
DA:132,0
DA:134,4
DA:135,0
DA:136,4
DA:137,4
DA:138,4
DA:139,3
DA:140,3
DA:142,27
DA:143,24
DA:144,23
DA:145,1
DA:147,23
DA:148,22
DA:149,1
DA:151,22
DA:152,21
DA:153,1
DA:155,21
DA:156,1
DA:157,20
DA:158,20
DA:159,20
DA:160,15
DA:161,15
DA:163,3
DA:164,2
DA:165,2
DA:166,0
DA:168,2
DA:169,2
DA:170,0
DA:172,2
DA:173,0
DA:174,2
DA:175,2
DA:176,2
DA:177,2
DA:179,1
DA:181,51
DA:185,12
DA:186,62
DA:187,50
DA:189,12
DA:190,31
DA:193,2
DA:194,2
DA:195,2
DA:196,1
DA:197,0
DA:198,0
DA:199,0
DA:201,2
DA:203,5
DA:204,5
DA:205,5
DA:208,66
DA:209,66
DA:210,66
DA:211,64
DA:212,52
DA:213,35
DA:214,32
DA:215,31
DA:216,30
DA:217,26
DA:218,21
DA:219,14
DA:220,6
DA:221,3
DA:222,1
DA:224,65
DA:225,66
BRF:0
BRH:0
LF:164
LH:138
end_of_record
SF:C:\Users\quinn\Desktop\dev\rust_vm\src\program_counter.rs
FN:10,_RNvMNtCshrGKrJ5NDIV_7rust_vm15program_counterNtB2_2PC5clock
FNDA:43,_RNvMNtCshrGKrJ5NDIV_7rust_vm15program_counterNtB2_2PC5clock
FNF:1
FNH:1
DA:10,43
DA:11,43
DA:12,43
BRF:0
BRH:0
LF:3
LH:3
end_of_record
SF:C:\Users\quinn\Desktop\dev\rust_vm\src\register\mod.rs
FN:29,_RNvMNtCshrGKrJ5NDIV_7rust_vm8registerNtB2_12RegisterFile14is_valid_indexB4_
FN:45,_RNvMNtCshrGKrJ5NDIV_7rust_vm8registerNtB2_12RegisterFile14schedule_write
FN:34,_RNvMNtCshrGKrJ5NDIV_7rust_vm8registerNtB2_12RegisterFile18set_read_addresses
FN:21,_RNvMNtCshrGKrJ5NDIV_7rust_vm8registerNtB2_12RegisterFile3new
FN:65,_RNvMNtCshrGKrJ5NDIV_7rust_vm8registerNtB2_12RegisterFile5clock
FN:56,_RNvMNtCshrGKrJ5NDIV_7rust_vm8registerNtB2_12RegisterFile6enable
FN:51,_RNvMNtCshrGKrJ5NDIV_7rust_vm8registerNtB2_12RegisterFile7disable
FN:82,_RNvMNtCshrGKrJ5NDIV_7rust_vm8registerNtB2_12RegisterFile7display
FNDA:224,_RNvMNtCshrGKrJ5NDIV_7rust_vm8registerNtB2_12RegisterFile14is_valid_indexB4_
FNDA:51,_RNvMNtCshrGKrJ5NDIV_7rust_vm8registerNtB2_12RegisterFile14schedule_write
FNDA:49,_RNvMNtCshrGKrJ5NDIV_7rust_vm8registerNtB2_12RegisterFile18set_read_addresses
FNDA:2,_RNvMNtCshrGKrJ5NDIV_7rust_vm8registerNtB2_12RegisterFile3new
FNDA:51,_RNvMNtCshrGKrJ5NDIV_7rust_vm8registerNtB2_12RegisterFile5clock
FNDA:37,_RNvMNtCshrGKrJ5NDIV_7rust_vm8registerNtB2_12RegisterFile6enable
FNDA:18,_RNvMNtCshrGKrJ5NDIV_7rust_vm8registerNtB2_12RegisterFile7disable
FNDA:1,_RNvMNtCshrGKrJ5NDIV_7rust_vm8registerNtB2_12RegisterFile7display
FNF:8
FNH:8
DA:21,2
DA:22,2
DA:23,2
DA:24,2
DA:25,2
DA:26,2
DA:27,2
DA:29,224
DA:30,224
DA:31,224
DA:32,224
DA:34,49
DA:35,49
DA:36,66
DA:37,66
DA:38,66
DA:39,66
DA:40,66
DA:42,16
DA:43,49
DA:45,51
DA:46,51
DA:47,36
DA:48,36
DA:49,51
DA:51,18
DA:52,18
DA:53,18
DA:54,18
DA:56,37
DA:57,37
DA:58,74
DA:59,74
DA:60,74
DA:61,74
DA:63,37
DA:65,51
DA:66,51
DA:67,35
DA:68,68
DA:69,33
DA:70,66
DA:72,66
DA:73,66
DA:74,15
DA:75,51
DA:77,0
DA:79,16
DA:80,51
DA:82,1
DA:83,2
DA:84,2
DA:85,32
DA:86,32
DA:87,32
DA:88,2
DA:90,1
BRF:0
BRH:0
LF:57
LH:56
end_of_record
SF:C:\Users\quinn\Desktop\dev\rust_vm\src\utils.rs
FN:5,_RNvNtCshrGKrJ5NDIV_7rust_vm5utils20parse_as_instruction
FN:6,_RNCNvNtCshrGKrJ5NDIV_7rust_vm5utils20parse_as_instruction0B5_
FNDA:46,_RNvNtCshrGKrJ5NDIV_7rust_vm5utils20parse_as_instruction
FNDA:855,_RNCNvNtCshrGKrJ5NDIV_7rust_vm5utils20parse_as_instruction0B5_
FNF:2
FNH:2
DA:5,46
DA:6,855
DA:7,46
DA:8,46
BRF:0
BRH:0
LF:5
LH:5
end_of_record
SF:C:\Users\quinn\Desktop\dev\rust_vm\src\vm\mod.rs
FN:46,_RINvMNtCshrGKrJ5NDIV_7rust_vm2vmNtB3_2VM12load_programRNtNtCsja4ZeDc2XAj_3std4path4PathEB5_
FN:39,_RINvMNtCshrGKrJ5NDIV_7rust_vm2vmNtB3_2VM15execute_programReEB5_
FN:59,_RNvMNtCshrGKrJ5NDIV_7rust_vm2vmNtB2_2VM19process_instruction
FN:24,_RNvMNtCshrGKrJ5NDIV_7rust_vm2vmNtB2_2VM3new
FN:104,_RNvMNtCshrGKrJ5NDIV_7rust_vm2vmNtB2_2VM5clock
FNDA:11,_RINvMNtCshrGKrJ5NDIV_7rust_vm2vmNtB3_2VM12load_programRNtNtCsja4ZeDc2XAj_3std4path4PathEB5_
FNDA:11,_RINvMNtCshrGKrJ5NDIV_7rust_vm2vmNtB3_2VM15execute_programReEB5_
FNDA:43,_RNvMNtCshrGKrJ5NDIV_7rust_vm2vmNtB2_2VM19process_instruction
FNDA:2,_RNvMNtCshrGKrJ5NDIV_7rust_vm2vmNtB2_2VM3new
FNDA:43,_RNvMNtCshrGKrJ5NDIV_7rust_vm2vmNtB2_2VM5clock
FNF:5
FNH:5
DA:24,2
DA:25,2
DA:26,2
DA:27,2
DA:28,2
DA:29,2
DA:30,2
DA:31,2
DA:32,2
DA:33,2
DA:34,2
DA:35,2
DA:36,2
DA:37,2
DA:39,11
DA:40,11
DA:41,11
DA:42,43
DA:43,11
DA:44,11
DA:46,11
DA:47,11
DA:48,11
DA:49,11
DA:50,11
DA:51,11
DA:52,11
DA:53,11
DA:54,11
DA:55,11
DA:56,11
DA:57,11
DA:59,43
DA:60,43
DA:61,43
DA:63,43
DA:64,43
DA:65,43
DA:66,2
DA:67,41
DA:68,43
DA:69,2
DA:70,2
DA:71,1
DA:72,1
DA:73,41
DA:75,43
DA:76,43
DA:77,27
DA:78,27
DA:79,16
DA:80,16
DA:81,43
DA:82,43
DA:83,43
DA:84,43
DA:85,43
DA:86,43
DA:87,7
DA:88,36
DA:89,43
DA:90,21
DA:91,22
DA:92,6
DA:95,16
DA:97,43
DA:98,13
DA:99,30
DA:100,43
DA:101,43
DA:102,43
DA:104,43
DA:105,43
DA:106,43
DA:107,0
DA:108,43
DA:109,43
DA:110,43
DA:111,43
DA:112,43
DA:113,43
BRF:0
BRH:0
LF:81
LH:80
end_of_record
SF:C:\Users\quinn\Desktop\dev\rust_vm\src\vm\tests.rs
FN:13,_RNvNtNtCshrGKrJ5NDIV_7rust_vm2vm5testss_12vm_execution
FN:58,_RNvNtNtCshrGKrJ5NDIV_7rust_vm2vm5testss_12vm_program_3
FN:77,_RNvNtNtCshrGKrJ5NDIV_7rust_vm2vm5testss_12vm_program_4
FN:84,_RNvNtNtCshrGKrJ5NDIV_7rust_vm2vm5testss_12vm_program_5
FN:91,_RNvNtNtCshrGKrJ5NDIV_7rust_vm2vm5testss_12vm_program_6
FN:98,_RNvNtNtCshrGKrJ5NDIV_7rust_vm2vm5testss_12vm_program_7
FN:104,_RNvNtNtCshrGKrJ5NDIV_7rust_vm2vm5testss_12vm_program_8
FN:6,_RNvNtNtCshrGKrJ5NDIV_7rust_vm2vm5testss_18vm_execute_program
FN:40,_RNvNtNtCshrGKrJ5NDIV_7rust_vm2vm5testss_20vm_execute_program_2
FN:66,_RNvNtNtCshrGKrJ5NDIV_7rust_vm2vm5testss_3fib
FN:30,_RNvNtNtCshrGKrJ5NDIV_7rust_vm2vm5testss_3nop
FNDA:1,_RNvNtNtCshrGKrJ5NDIV_7rust_vm2vm5testss_12vm_execution
FNDA:1,_RNvNtNtCshrGKrJ5NDIV_7rust_vm2vm5testss_12vm_program_3
FNDA:1,_RNvNtNtCshrGKrJ5NDIV_7rust_vm2vm5testss_12vm_program_4
FNDA:1,_RNvNtNtCshrGKrJ5NDIV_7rust_vm2vm5testss_12vm_program_5
FNDA:1,_RNvNtNtCshrGKrJ5NDIV_7rust_vm2vm5testss_12vm_program_6
FNDA:1,_RNvNtNtCshrGKrJ5NDIV_7rust_vm2vm5testss_12vm_program_7
FNDA:1,_RNvNtNtCshrGKrJ5NDIV_7rust_vm2vm5testss_12vm_program_8
FNDA:1,_RNvNtNtCshrGKrJ5NDIV_7rust_vm2vm5testss_18vm_execute_program
FNDA:1,_RNvNtNtCshrGKrJ5NDIV_7rust_vm2vm5testss_20vm_execute_program_2
FNDA:1,_RNvNtNtCshrGKrJ5NDIV_7rust_vm2vm5testss_3fib
FNDA:1,_RNvNtNtCshrGKrJ5NDIV_7rust_vm2vm5testss_3nop
FNF:11
FNH:11
DA:6,1
DA:7,1
DA:8,1
DA:9,1
DA:10,1
DA:13,1
DA:14,1
DA:15,1
DA:16,1
DA:17,1
DA:18,1
DA:19,1
DA:20,1
DA:21,1
DA:22,1
DA:23,1
DA:24,1
DA:25,1
DA:26,1
DA:27,1
DA:30,1
DA:31,1
DA:32,1
DA:33,1
DA:34,1
DA:35,1
DA:36,1
DA:37,1
DA:40,1
DA:41,1
DA:42,1
DA:43,1
DA:44,1
DA:45,1
DA:46,1
DA:47,1
DA:48,1
DA:49,1
DA:50,1
DA:51,1
DA:52,1
DA:53,1
DA:54,1
DA:55,1
DA:58,1
DA:59,1
DA:60,1
DA:61,1
DA:62,1
DA:63,1
DA:66,1
DA:67,1
DA:68,1
DA:69,1
DA:70,1
DA:71,1
DA:72,1
DA:73,1
DA:74,1
DA:77,1
DA:78,1
DA:79,1
DA:80,1
DA:81,1
DA:84,1
DA:85,1
DA:86,1
DA:87,1
DA:88,1
DA:91,1
DA:92,1
DA:93,1
DA:94,1
DA:95,1
DA:98,1
DA:99,1
DA:100,1
DA:101,1
DA:104,1
DA:105,1
DA:106,1
DA:107,1
BRF:0
BRH:0
LF:82
LH:82
end_of_record